Certificate:
    Data:
        Version: 1 (0x0)
        Serial Number:
            3d:ba:1c:2e:06:59:1d:b8:7d:f0:67:cd:e2:68:3d:e4:70:ac:81:86
        Signature Algorithm: sha256WithRSAEncryption
        Issuer: C=XY, O=Dask CA, CN=our-ca-server
        Validity
            Not Before: Jan  6 07:46:08 2021 GMT
            Not After : Aug 31 07:46:08 3006 GMT
        Subject: C=XY, L=Dask-distributed, O=Dask, CN=localhost
        Subject Public Key Info:
            Public Key Algorithm: rsaEncryption
                RSA Public-Key: (2048 bit)
                Modulus:
                    00:ab:2b:90:e9:59:22:80:c4:78:58:c5:fc:27:dd:
                    5a:1f:8e:af:db:f4:b6:e6:07:1f:53:90:4a:c8:d6:
                    69:43:a5:53:0e:18:7e:8b:23:78:ce:9f:63:d6:cb:
                    3b:6d:8a:f0:58:2c:46:b4:02:78:49:37:a0:ab:1d:
                    a7:15:7e:e8:06:fa:e1:de:07:d9:7c:86:b5:cf:36:
                    a1:22:e2:8d:6a:c7:85:4b:cc:a9:eb:a0:e9:c3:d7:
                    ce:45:bc:c6:80:46:9d:d0:7d:f6:bd:94:ec:09:d6:
                    ae:5e:94:d2:28:3e:0b:5a:99:0e:10:24:8e:eb:fd:
                    50:46:1f:8f:ba:2b:ae:66:4b:57:d6:20:9a:32:98:
                    8f:4a:b2:bb:c4:5a:86:b2:fd:46:f5:44:8c:22:f9:
                    69:d1:9d:96:06:47:e7:c9:6b:f0:df:59:2a:f0:72:
                    ba:31:9a:fd:81:d8:85:27:01:fd:5c:d4:10:a1:5f:
                    92:95:ec:45:92:23:d7:b6:78:89:99:f9:b6:15:4a:
                    81:53:d2:b2:7f:73:d8:09:9f:2c:f9:34:62:32:e6:
                    24:3e:19:3f:bd:c9:7b:07:40:82:7d:b0:26:c1:14:
                    2d:31:52:4c:74:cd:59:db:fa:a6:eb:65:5c:79:9b:
                    61:ca:76:2c:72:af:c7:ba:ad:3e:8f:86:38:d8:0a:
                    45:c5
                Exponent: 65537 (0x10001)
    Signature Algorithm: sha256WithRSAEncryption
         59:86:0c:cb:0a:2f:ec:58:91:55:1b:ee:81:15:c3:a0:d7:4c:
         74:b3:3f:4e:14:06:16:2c:bf:37:3d:ea:12:92:c2:80:1d:af:
         65:ce:00:b0:fe:b4:d7:83:cb:ef:d7:da:78:5b:db:88:6f:ab:
         02:de:c1:fe:3d:d7:b1:2f:c7:9d:0f:45:08:18:1e:e8:12:83:
         78:e7:3f:67:de:89:fe:70:90:81:fa:66:64:33:c9:e7:41:de:
         44:9a:aa:cf:fc:c8:49:93:7d:f4:a9:90:1f:59:ef:ce:72:48:
         39:d1:54:46:eb:fe:5b:06:67:d9:44:fd:a2:0a:3a:7f:6b:a9:
         ab:6b:1f:ee:6e:ec:1a:cc:63:96:d9:e8:d2:11:d7:5a:68:d6:
         42:69:d6:cb:c9:d9:0a:35:81:16:34:70:76:a1:69:8a:88:6c:
         57:c7:70:f5:23:1c:3f:6b:12:04:ff:44:5e:a5:f5:94:f8:e9:
         f4:20:de:d8:32:33:2f:e3:b4:69:39:5c:e9:9a:5e:44:7d:ae:
         94:00:d8:c2:88:15:a4:ed:3f:5c:d6:4f:bc:19:a0:54:ab:97:
         15:94:01:93:9e:f8:a5:dc:06:4d:02:75:f4:3a:eb:93:16:24:
         03:a1:12:85:e2:96:3b:b6:d7:b8:0b:99:00:f9:f0:f5:bc:7c:
         a0:59:0f:06
-----BEGIN CERTIFICATE-----
MIIDCzCCAfMCFD26HC4GWR24ffBnzeJoPeRwrIGGMA0GCSqGSIb3DQEBCwUAMDcx
CzAJBgNVBAYTAlhZMRAwDgYDVQQKDAdEYXNrIENBMRYwFAYDVQQDDA1vdXItY2Et
c2VydmVyMCAXDTIxMDEwNjA3NDYwOFoYDzMwMDYwODMxMDc0NjA4WjBLMQswCQYD
VQQGEwJYWTEZMBcGA1UEBwwQRGFzay1kaXN0cmlidXRlZDENMAsGA1UECgwERGFz
azESMBAGA1UEAwwJbG9jYWxob3N0MIIBIjANBgkqhkiG9w0BAQEFAAOCAQ8AMIIB
CgKCAQEAqyuQ6VkigMR4WMX8J91aH46v2/S25gcfU5BKyNZpQ6VTDhh+iyN4zp9j
1ss7bYrwWCxGtAJ4STegqx2nFX7oBvrh3gfZfIa1zzahIuKNaseFS8yp66Dpw9fO
RbzGgEad0H32vZTsCdauXpTSKD4LWpkOECSO6/1QRh+PuiuuZktX1iCaMpiPSrK7
xFqGsv1G9USMIvlp0Z2WBkfnyWvw31kq8HK6MZr9gdiFJwH9XNQQoV+SlexFkiPX
tniJmfm2FUqBU9Kyf3PYCZ8s+TRiMuYkPhk/vcl7B0CCfbAmwRQtMVJMdM1Z2/qm
62VceZthynYscq/Huq0+j4Y42ApFxQIDAQABMA0GCSqGSIb3DQEBCwUAA4IBAQBZ
hgzLCi/sWJFVG+6BFcOg10x0sz9OFAYWLL83PeoSksKAHa9lzgCw/rTXg8vv19p4
W9uIb6sC3sH+PdexL8edD0UIGB7oEoN45z9n3on+cJCB+mZkM8nnQd5EmqrP/MhJ
k330qZAfWe/Ockg50VRG6/5bBmfZRP2iCjp/a6mrax/ubuwazGOW2ejSEddaaNZC
adbLydkKNYEWNHB2oWmKiGxXx3D1Ixw/axIE/0RepfWU+On0IN7YMjMv47RpOVzp
ml5Efa6UANjCiBWk7T9c1k+8GaBUq5cVlAGTnvil3AZNAnX0OuuTFiQDoRKF4pY7
tte4C5kA+fD1vHygWQ8G
-----END CERTIFICATE-----
Certificate:
    Data:
        Version: 3 (0x2)
        Serial Number:
            3d:ba:1c:2e:06:59:1d:b8:7d:f0:67:cd:e2:68:3d:e4:70:ac:81:85
        Signature Algorithm: sha256WithRSAEncryption
        Issuer: C=XY, O=Dask CA, CN=our-ca-server
        Validity
            Not Before: Jan  6 07:46:08 2021 GMT
            Not After : Jan  6 07:46:08 3021 GMT
        Subject: C=XY, O=Dask CA, CN=our-ca-server
        Subject Public Key Info:
            Public Key Algorithm: rsaEncryption
                RSA Public-Key: (2048 bit)
                Modulus:
                    00:98:f6:94:70:e6:f7:65:a9:fd:85:9c:a2:e2:ae:
                    08:3b:c4:93:4a:62:95:c3:19:f9:65:dd:f1:df:28:
                    ee:0b:e4:a1:a8:7d:68:97:b5:40:45:94:c7:a7:79:
                    62:0f:dd:ff:87:ea:12:76:ee:91:f1:3f:0e:0e:4f:
                    bd:b6:8f:26:40:63:08:fb:47:71:8a:0b:ae:71:d9:
                    86:10:f0:fc:02:e1:37:bb:87:68:3f:cb:67:44:6e:
                    60:04:64:38:26:40:96:dc:00:94:e0:2a:e5:8d:c8:
                    a2:9b:d1:12:d0:fa:43:ca:29:e7:42:0c:33:3a:f9:
                    cf:0a:01:54:3a:bf:02:b2:b4:49:46:6c:3c:d9:b5:
                    2c:0a:5c:24:0b:5a:0f:66:6e:31:4b:f5:33:4a:67:
                    61:e5:71:02:02:cb:16:1e:00:ad:bd:a5:8a:60:6b:
                    ad:09:25:14:8b:d0:ab:60:eb:d5:6b:70:af:9a:b6:
                    66:36:44:08:6a:6d:c4:92:72:ce:9b:83:a3:54:04:
                    3e:08:13:8d:0a:0b:4e:7a:4c:da:8e:ba:a0:34:76:
                    3b:ce:56:9c:d9:6e:19:ac:e9:3a:50:66:90:56:90:
                    bc:ff:a9:f2:1e:ac:b2:9f:01:7c:96:50:6f:bf:84:
                    df:22:9c:f6:b1:21:94:8a:79:3c:6c:dc:94:c2:e7:
                    a7:f7
                Exponent: 65537 (0x10001)
        X509v3 extensions:
            X509v3 Subject Key Identifier: 
                EB:0C:96:1D:60:5D:3A:39:00:EA:D8:C3:73:B0:4E:C9:D6:B9:5D:5B
            X509v3 Authority Key Identifier: 
                keyid:EB:0C:96:1D:60:5D:3A:39:00:EA:D8:C3:73:B0:4E:C9:D6:B9:5D:5B

            X509v3 Basic Constraints: 
                CA:TRUE
    Signature Algorithm: sha256WithRSAEncryption
         08:9b:4d:5a:f0:f0:3d:ef:2e:d2:20:fc:9a:91:41:ba:f6:12:
         5b:49:7e:2c:84:4d:f7:cf:2b:54:9c:d3:31:d5:54:da:b5:80:
         0f:04:e5:ca:79:81:19:d4:89:c6:55:fa:b0:0d:9d:3a:f7:34:
         39:00:3b:db:18:66:45:25:9a:1c:11:02:c0:e3:46:b9:72:37:
         a8:49:dc:0a:7f:fd:1b:fb:78:6c:e3:ae:2f:ac:99:dc:bd:3e:
         14:12:f2:c3:f9:75:97:7d:d3:74:61:2b:fa:07:78:e5:99:ed:
         58:31:87:ee:07:d0:d1:31:b3:b6:e0:90:1b:93:ac:e2:f2:71:
         ce:c8:81:56:be:9c:2e:22:a7:8e:6c:29:dc:e8:69:4e:26:af:
         41:4d:57:b2:f7:62:a5:d5:33:0e:0d:3d:fb:bb:35:a9:bf:e0:
         0a:4e:75:85:d5:39:aa:02:29:d7:a7:20:24:97:2a:48:0f:33:
         57:24:8d:11:02:88:c7:19:bb:22:95:e7:7b:09:51:ef:79:71:
         40:8e:36:f6:40:4a:df:3c:a4:ca:f3:ac:60:ee:a8:8f:58:38:
         88:07:06:78:5b:6c:cd:38:e4:1f:aa:69:d4:a1:ba:dc:59:21:
         3b:e5:5c:50:ac:0b:5c:3f:c3:c9:5a:6a:fb:c3:46:5f:97:93:
         7f:f1:a7:0f
-----BEGIN CERTIFICATE-----
MIIDTjCCAjagAwIBAgIUPbocLgZZHbh98GfN4mg95HCsgYUwDQYJKoZIhvcNAQEL
BQAwNzELMAkGA1UEBhMCWFkxEDAOBgNVBAoMB0Rhc2sgQ0ExFjAUBgNVBAMMDW91
ci1jYS1zZXJ2ZXIwIBcNMjEwMTA2MDc0NjA4WhgPMzAyMTAxMDYwNzQ2MDhaMDcx
CzAJBgNVBAYTAlhZMRAwDgYDVQQKDAdEYXNrIENBMRYwFAYDVQQDDA1vdXItY2Et
c2VydmVyMIIBIjANBgkqhkiG9w0BAQEFAAOCAQ8AMIIBCgKCAQEAmPaUcOb3Zan9
hZyi4q4IO8STSmKVwxn5Zd3x3yjuC+ShqH1ol7VARZTHp3liD93/h+oSdu6R8T8O
Dk+9to8mQGMI+0dxiguucdmGEPD8AuE3u4doP8tnRG5gBGQ4JkCW3ACU4Crljcii
m9ES0PpDyinnQgwzOvnPCgFUOr8CsrRJRmw82bUsClwkC1oPZm4xS/UzSmdh5XEC
AssWHgCtvaWKYGutCSUUi9CrYOvVa3CvmrZmNkQIam3EknLOm4OjVAQ+CBONCgtO
ekzajrqgNHY7zlac2W4ZrOk6UGaQVpC8/6nyHqyynwF8llBvv4TfIpz2sSGUink8
bNyUwuen9wIDAQABo1AwTjAdBgNVHQ4EFgQU6wyWHWBdOjkA6tjDc7BOyda5XVsw
HwYDVR0jBBgwFoAU6wyWHWBdOjkA6tjDc7BOyda5XVswDAYDVR0TBAUwAwEB/zAN
BgkqhkiG9w0BAQsFAAOCAQEACJtNWvDwPe8u0iD8mpFBuvYSW0l+LIRN988rVJzT
MdVU2rWADwTlynmBGdSJxlX6sA2dOvc0OQA72xhmRSWaHBECwONGuXI3qEncCn/9
G/t4bOOuL6yZ3L0+FBLyw/l1l33TdGEr+gd45ZntWDGH7gfQ0TGztuCQG5Os4vJx
zsiBVr6cLiKnjmwp3OhpTiavQU1XsvdipdUzDg09+7s1qb/gCk51hdU5qgIp16cg
JJcqSA8zVySNEQKIxxm7IpXnewlR73lxQI429kBK3zykyvOsYO6oj1g4iAcGeFts
zTjkH6pp1KG63FkhO+VcUKwLXD/DyVpq+8NGX5eTf/GnDw==
-----END CERTIFICATE-----
