Certificate:
    Data:
        Version: 3 (0x2)
        Serial Number:
            cb:2d:80:99:5a:69:52:5c
        Signature Algorithm: sha256WithRSAEncryption
        Issuer: C=XY, O=Dask CA, CN=our-ca-server
        Validity
            Not Before: Aug 29 14:23:16 2018 GMT
            Not After : Oct 28 14:23:16 2037 GMT
        Subject: C=XY, L=Dask-distributed, O=Dask, CN=localhost
        Subject Public Key Info:
            Public Key Algorithm: rsaEncryption
                Public-Key: (3072 bit)
                Modulus:
                    00:af:dc:2b:4f:d2:30:0e:eb:99:f9:57:fa:e6:b4:
                    43:ce:c8:58:3b:cd:0a:0e:7f:71:f5:b9:c4:b9:31:
                    43:4a:a8:1c:ca:4d:e1:63:f1:f1:a8:80:8b:3a:9c:
                    d2:11:a4:e7:b9:29:75:82:ac:43:54:6a:b9:95:17:
                    20:77:dc:53:52:04:40:9f:83:2d:aa:e4:cd:ef:88:
                    f1:0b:75:7b:fd:04:9c:98:dc:62:e3:a0:15:c2:29:
                    11:1d:e2:8f:71:cb:58:ad:95:62:4b:94:74:ae:ed:
                    e5:74:60:f1:25:63:e3:0f:d9:8e:db:00:89:71:b4:
                    7e:d9:9a:80:a8:68:77:0a:85:3c:9d:f6:de:df:d8:
                    33:45:6c:2a:c5:3f:ca:e0:9f:de:1c:71:f5:2c:a6:
                    9c:2b:f6:c1:59:00:a1:e9:4a:09:f5:69:06:f2:0e:
                    68:f1:5b:df:67:6e:15:e9:8c:bb:ef:9e:cd:e2:1c:
                    d9:4d:0d:f8:0f:7b:e3:e0:17:74:ca:1a:cf:50:8b:
                    d7:2e:9d:3d:31:fd:36:8a:2c:f2:1b:ff:d3:51:64:
                    64:01:af:ef:98:84:f3:ac:8e:06:83:5f:fe:5c:51:
                    d7:a2:8a:90:ed:c2:a5:33:ae:79:b1:33:5d:10:0a:
                    75:9e:dc:98:b0:c3:d2:86:aa:43:44:ac:7a:e8:0c:
                    46:c7:0c:76:65:19:08:dd:7d:b0:87:73:44:4e:52:
                    00:85:69:20:61:ab:42:3b:35:45:b3:f5:f4:87:71:
                    15:38:dc:7c:64:ff:58:f3:37:85:d3:93:f8:4d:03:
                    b5:9a:d0:1a:7d:06:e5:07:95:cd:09:5f:89:41:54:
                    e5:81:ea:9a:68:f6:7b:04:8d:75:a2:b4:65:73:78:
                    5c:ca:bf:30:b9:50:33:31:16:47:a3:bd:ec:54:9b:
                    b5:22:20:50:72:2f:c0:4d:5b:cd:73:a5:a8:27:bc:
                    6a:63:13:76:3c:5d:b0:a6:52:1f:d9:77:33:4b:6e:
                    1c:9c:1d:73:75:a9:f0:46:85:cf
                Exponent: 65537 (0x10001)
        X509v3 extensions:
            X509v3 Subject Alternative Name: 
                DNS:localhost
            X509v3 Key Usage: critical
                Digital Signature, Key Encipherment
            X509v3 Extended Key Usage: 
                TLS Web Server Authentication, TLS Web Client Authentication
            X509v3 Basic Constraints: critical
                CA:FALSE
            X509v3 Subject Key Identifier: 
                B2:D5:99:88:CC:E5:68:F0:20:83:05:06:46:59:DF:2F:EA:6F:84:73
            X509v3 Authority Key Identifier: 
                keyid:09:20:65:2B:61:F0:D0:F8:E7:C9:0C:29:6A:21:73:4C:D3:49:06:F2
                DirName:/C=XY/O=Dask CA/CN=our-ca-server
                serial:CB:2D:80:99:5A:69:52:5B
            Authority Information Access: 
                CA Issuers - URI:http://testca.pythontest.net/testca/pycacert.cer
                OCSP - URI:http://testca.pythontest.net/testca/ocsp/
            X509v3 CRL Distribution Points: 
                Full Name:
                  URI:http://testca.pythontest.net/testca/revocation.crl
    Signature Algorithm: sha256WithRSAEncryption
    Signature Value:
        3e:0c:ca:39:35:68:82:f8:52:bd:f1:34:d4:2c:4a:58:f1:7c:
        63:8f:61:6e:56:ab:49:d6:0b:f3:34:e8:07:f0:9d:1a:df:bc:
        d4:21:ba:79:ef:0f:40:40:38:70:3a:01:c5:1c:e7:6d:f9:48:
        0c:58:cd:78:e0:e7:de:b7:6e:6a:28:8c:b4:b2:6b:64:d2:cb:
        55:d2:05:c5:0f:4f:5d:11:9d:9d:19:a8:41:5d:90:29:64:25:
        e8:04:1c:e8:83:e0:39:41:ac:4f:64:bf:d9:24:99:bd:9b:23:
        21:72:6f:1b:38:01:c5:4f:88:79:9e:17:a3:b0:ec:39:a9:4d:
        27:d9:b4:38:38:74:5f:28:32:d5:66:64:1d:f3:55:ff:6f:ff:
        b8:e8:39:fc:66:e0:79:11:21:77:e9:6e:0a:90:26:bc:ee:2a:
        d5:83:93:d0:c3:b1:03:4c:e7:6e:e0:1c:e3:cf:ca:c7:ea:e0:
        6a:6e:ad:dc:a9:64:13:42:f8:65:11:07:0c:21:5f:d4:a7:82:
        76:f0:cc:2b:8f:62:e0:f8:0a:12:bc:01:05:23:56:73:a1:7e:
        82:ba:46:93:a9:6a:90:ce:15:4f:43:27:57:9e:fe:71:48:0c:
        15:dd:29:0b:c5:1e:f1:a0:1c:92:6e:fd:47:79:4f:2f:8b:b7:
        14:61:0f:b2:1d:bb:f3:15:58:17:7c:14:d7:12:2e:1f:c3:12:
        11:67:48:77:27:0b:2b:a4:65:96:22:ed:ac:fb:dc:db:4b:8c:
        f7:3b:ea:79:84:82:e8:0a:9e:28:a5:14:3c:37:12:e1:22:31:
        41:f2:68:f4:e7:53:11:43:92:39:6d:9a:c1:be:30:e0:8f:16:
        78:20:44:be:55:65:21:c3:31:1e:96:0d:5e:2c:e0:5d:31:a2:
        6c:fc:46:70:76:b1:99:5a:8c:a1:a4:10:ec:08:3e:60:64:15:
        4a:79:a3:8d:27:55:e4:51:4b:92:19:94:7e:18:95:e5:c8:68:
        bb:89:b4:d0:65:12
-----BEGIN CERTIFICATE-----
MIIFsTCCBBmgAwIBAgIJAMstgJlaaVJcMA0GCSqGSIb3DQEBCwUAMDcxCzAJBgNV
BAYTAlhZMRAwDgYDVQQKDAdEYXNrIENBMRYwFAYDVQQDDA1vdXItY2Etc2VydmVy
MB4XDTE4MDgyOTE0MjMxNloXDTM3MTAyODE0MjMxNlowSzELMAkGA1UEBhMCWFkx
GTAXBgNVBAcMEERhc2stZGlzdHJpYnV0ZWQxDTALBgNVBAoMBERhc2sxEjAQBgNV
BAMMCWxvY2FsaG9zdDCCAaIwDQYJKoZIhvcNAQEBBQADggGPADCCAYoCggGBAK/c
K0/SMA7rmflX+ua0Q87IWDvNCg5/cfW5xLkxQ0qoHMpN4WPx8aiAizqc0hGk57kp
dYKsQ1RquZUXIHfcU1IEQJ+DLarkze+I8Qt1e/0EnJjcYuOgFcIpER3ij3HLWK2V
YkuUdK7t5XRg8SVj4w/ZjtsAiXG0ftmagKhodwqFPJ323t/YM0VsKsU/yuCf3hxx
9SymnCv2wVkAoelKCfVpBvIOaPFb32duFemMu++ezeIc2U0N+A974+AXdMoaz1CL
1y6dPTH9Noos8hv/01FkZAGv75iE86yOBoNf/lxR16KKkO3CpTOuebEzXRAKdZ7c
mLDD0oaqQ0SseugMRscMdmUZCN19sIdzRE5SAIVpIGGrQjs1RbP19IdxFTjcfGT/
WPM3hdOT+E0DtZrQGn0G5QeVzQlfiUFU5YHqmmj2ewSNdaK0ZXN4XMq/MLlQMzEW
R6O97FSbtSIgUHIvwE1bzXOlqCe8amMTdjxdsKZSH9l3M0tuHJwdc3Wp8EaFzwID
AQABo4IBqjCCAaYwFAYDVR0RBA0wC4IJbG9jYWxob3N0MA4GA1UdDwEB/wQEAwIF
oDAdBgNVHSUEFjAUBggrBgEFBQcDAQYIKwYBBQUHAwIwDAYDVR0TAQH/BAIwADAd
BgNVHQ4EFgQUstWZiMzlaPAggwUGRlnfL+pvhHMwZwYDVR0jBGAwXoAUCSBlK2Hw
0PjnyQwpaiFzTNNJBvKhO6Q5MDcxCzAJBgNVBAYTAlhZMRAwDgYDVQQKDAdEYXNr
IENBMRYwFAYDVQQDDA1vdXItY2Etc2VydmVyggkAyy2AmVppUlswgYMGCCsGAQUF
BwEBBHcwdTA8BggrBgEFBQcwAoYwaHR0cDovL3Rlc3RjYS5weXRob250ZXN0Lm5l
dC90ZXN0Y2EvcHljYWNlcnQuY2VyMDUGCCsGAQUFBzABhilodHRwOi8vdGVzdGNh
LnB5dGhvbnRlc3QubmV0L3Rlc3RjYS9vY3NwLzBDBgNVHR8EPDA6MDigNqA0hjJo
dHRwOi8vdGVzdGNhLnB5dGhvbnRlc3QubmV0L3Rlc3RjYS9yZXZvY2F0aW9uLmNy
bDANBgkqhkiG9w0BAQsFAAOCAYEAPgzKOTVogvhSvfE01CxKWPF8Y49hblarSdYL
8zToB/CdGt+81CG6ee8PQEA4cDoBxRznbflIDFjNeODn3rduaiiMtLJrZNLLVdIF
xQ9PXRGdnRmoQV2QKWQl6AQc6IPgOUGsT2S/2SSZvZsjIXJvGzgBxU+IeZ4Xo7Ds
OalNJ9m0ODh0Xygy1WZkHfNV/2//uOg5/GbgeREhd+luCpAmvO4q1YOT0MOxA0zn
buAc48/Kx+rgam6t3KlkE0L4ZREHDCFf1KeCdvDMK49i4PgKErwBBSNWc6F+grpG
k6lqkM4VT0MnV57+cUgMFd0pC8Ue8aAckm79R3lPL4u3FGEPsh278xVYF3wU1xIu
H8MSEWdIdycLK6RlliLtrPvc20uM9zvqeYSC6AqeKKUUPDcS4SIxQfJo9OdTEUOS
OW2awb4w4I8WeCBEvlVlIcMxHpYNXizgXTGibPxGcHaxmVqMoaQQ7Ag+YGQVSnmj
jSdV5FFLkhmUfhiV5chou4m00GUS
-----END CERTIFICATE-----
