Certificate:
    Data:
        Version: 1 (0x0)
        Serial Number:
            3d:ba:1c:2e:06:59:1d:b8:7d:f0:67:cd:e2:68:3d:e4:70:ac:81:86
        Signature Algorithm: sha256WithRSAEncryption
        Issuer: C=XY, O=Dask CA, CN=our-ca-server
        Validity
            Not Before: Jan  6 07:46:08 2021 GMT
            Not After : Aug 31 07:46:08 3006 GMT
        Subject: C=XY, L=Dask-distributed, O=Dask, CN=localhost
        Subject Public Key Info:
            Public Key Algorithm: rsaEncryption
                RSA Public-Key: (2048 bit)
                Modulus:
                    00:ab:2b:90:e9:59:22:80:c4:78:58:c5:fc:27:dd:
                    5a:1f:8e:af:db:f4:b6:e6:07:1f:53:90:4a:c8:d6:
                    69:43:a5:53:0e:18:7e:8b:23:78:ce:9f:63:d6:cb:
                    3b:6d:8a:f0:58:2c:46:b4:02:78:49:37:a0:ab:1d:
                    a7:15:7e:e8:06:fa:e1:de:07:d9:7c:86:b5:cf:36:
                    a1:22:e2:8d:6a:c7:85:4b:cc:a9:eb:a0:e9:c3:d7:
                    ce:45:bc:c6:80:46:9d:d0:7d:f6:bd:94:ec:09:d6:
                    ae:5e:94:d2:28:3e:0b:5a:99:0e:10:24:8e:eb:fd:
                    50:46:1f:8f:ba:2b:ae:66:4b:57:d6:20:9a:32:98:
                    8f:4a:b2:bb:c4:5a:86:b2:fd:46:f5:44:8c:22:f9:
                    69:d1:9d:96:06:47:e7:c9:6b:f0:df:59:2a:f0:72:
                    ba:31:9a:fd:81:d8:85:27:01:fd:5c:d4:10:a1:5f:
                    92:95:ec:45:92:23:d7:b6:78:89:99:f9:b6:15:4a:
                    81:53:d2:b2:7f:73:d8:09:9f:2c:f9:34:62:32:e6:
                    24:3e:19:3f:bd:c9:7b:07:40:82:7d:b0:26:c1:14:
                    2d:31:52:4c:74:cd:59:db:fa:a6:eb:65:5c:79:9b:
                    61:ca:76:2c:72:af:c7:ba:ad:3e:8f:86:38:d8:0a:
                    45:c5
                Exponent: 65537 (0x10001)
    Signature Algorithm: sha256WithRSAEncryption
         59:86:0c:cb:0a:2f:ec:58:91:55:1b:ee:81:15:c3:a0:d7:4c:
         74:b3:3f:4e:14:06:16:2c:bf:37:3d:ea:12:92:c2:80:1d:af:
         65:ce:00:b0:fe:b4:d7:83:cb:ef:d7:da:78:5b:db:88:6f:ab:
         02:de:c1:fe:3d:d7:b1:2f:c7:9d:0f:45:08:18:1e:e8:12:83:
         78:e7:3f:67:de:89:fe:70:90:81:fa:66:64:33:c9:e7:41:de:
         44:9a:aa:cf:fc:c8:49:93:7d:f4:a9:90:1f:59:ef:ce:72:48:
         39:d1:54:46:eb:fe:5b:06:67:d9:44:fd:a2:0a:3a:7f:6b:a9:
         ab:6b:1f:ee:6e:ec:1a:cc:63:96:d9:e8:d2:11:d7:5a:68:d6:
         42:69:d6:cb:c9:d9:0a:35:81:16:34:70:76:a1:69:8a:88:6c:
         57:c7:70:f5:23:1c:3f:6b:12:04:ff:44:5e:a5:f5:94:f8:e9:
         f4:20:de:d8:32:33:2f:e3:b4:69:39:5c:e9:9a:5e:44:7d:ae:
         94:00:d8:c2:88:15:a4:ed:3f:5c:d6:4f:bc:19:a0:54:ab:97:
         15:94:01:93:9e:f8:a5:dc:06:4d:02:75:f4:3a:eb:93:16:24:
         03:a1:12:85:e2:96:3b:b6:d7:b8:0b:99:00:f9:f0:f5:bc:7c:
         a0:59:0f:06
-----BEGIN CERTIFICATE-----
MIIDCzCCAfMCFD26HC4GWR24ffBnzeJoPeRwrIGGMA0GCSqGSIb3DQEBCwUAMDcx
CzAJBgNVBAYTAlhZMRAwDgYDVQQKDAdEYXNrIENBMRYwFAYDVQQDDA1vdXItY2Et
c2VydmVyMCAXDTIxMDEwNjA3NDYwOFoYDzMwMDYwODMxMDc0NjA4WjBLMQswCQYD
VQQGEwJYWTEZMBcGA1UEBwwQRGFzay1kaXN0cmlidXRlZDENMAsGA1UECgwERGFz
azESMBAGA1UEAwwJbG9jYWxob3N0MIIBIjANBgkqhkiG9w0BAQEFAAOCAQ8AMIIB
CgKCAQEAqyuQ6VkigMR4WMX8J91aH46v2/S25gcfU5BKyNZpQ6VTDhh+iyN4zp9j
1ss7bYrwWCxGtAJ4STegqx2nFX7oBvrh3gfZfIa1zzahIuKNaseFS8yp66Dpw9fO
RbzGgEad0H32vZTsCdauXpTSKD4LWpkOECSO6/1QRh+PuiuuZktX1iCaMpiPSrK7
xFqGsv1G9USMIvlp0Z2WBkfnyWvw31kq8HK6MZr9gdiFJwH9XNQQoV+SlexFkiPX
tniJmfm2FUqBU9Kyf3PYCZ8s+TRiMuYkPhk/vcl7B0CCfbAmwRQtMVJMdM1Z2/qm
62VceZthynYscq/Huq0+j4Y42ApFxQIDAQABMA0GCSqGSIb3DQEBCwUAA4IBAQBZ
hgzLCi/sWJFVG+6BFcOg10x0sz9OFAYWLL83PeoSksKAHa9lzgCw/rTXg8vv19p4
W9uIb6sC3sH+PdexL8edD0UIGB7oEoN45z9n3on+cJCB+mZkM8nnQd5EmqrP/MhJ
k330qZAfWe/Ockg50VRG6/5bBmfZRP2iCjp/a6mrax/ubuwazGOW2ejSEddaaNZC
adbLydkKNYEWNHB2oWmKiGxXx3D1Ixw/axIE/0RepfWU+On0IN7YMjMv47RpOVzp
ml5Efa6UANjCiBWk7T9c1k+8GaBUq5cVlAGTnvil3AZNAnX0OuuTFiQDoRKF4pY7
tte4C5kA+fD1vHygWQ8G
-----END CERTIFICATE-----
