Certificate:
    Data:
        Version: 3 (0x2)
        Serial Number:
            3d:ba:1c:2e:06:59:1d:b8:7d:f0:67:cd:e2:68:3d:e4:70:ac:81:85
        Signature Algorithm: sha256WithRSAEncryption
        Issuer: C=XY, O=Dask CA, CN=our-ca-server
        Validity
            Not Before: Jan  6 07:46:08 2021 GMT
            Not After : Jan  6 07:46:08 3021 GMT
        Subject: C=XY, O=Dask CA, CN=our-ca-server
        Subject Public Key Info:
            Public Key Algorithm: rsaEncryption
                RSA Public-Key: (2048 bit)
                Modulus:
                    00:98:f6:94:70:e6:f7:65:a9:fd:85:9c:a2:e2:ae:
                    08:3b:c4:93:4a:62:95:c3:19:f9:65:dd:f1:df:28:
                    ee:0b:e4:a1:a8:7d:68:97:b5:40:45:94:c7:a7:79:
                    62:0f:dd:ff:87:ea:12:76:ee:91:f1:3f:0e:0e:4f:
                    bd:b6:8f:26:40:63:08:fb:47:71:8a:0b:ae:71:d9:
                    86:10:f0:fc:02:e1:37:bb:87:68:3f:cb:67:44:6e:
                    60:04:64:38:26:40:96:dc:00:94:e0:2a:e5:8d:c8:
                    a2:9b:d1:12:d0:fa:43:ca:29:e7:42:0c:33:3a:f9:
                    cf:0a:01:54:3a:bf:02:b2:b4:49:46:6c:3c:d9:b5:
                    2c:0a:5c:24:0b:5a:0f:66:6e:31:4b:f5:33:4a:67:
                    61:e5:71:02:02:cb:16:1e:00:ad:bd:a5:8a:60:6b:
                    ad:09:25:14:8b:d0:ab:60:eb:d5:6b:70:af:9a:b6:
                    66:36:44:08:6a:6d:c4:92:72:ce:9b:83:a3:54:04:
                    3e:08:13:8d:0a:0b:4e:7a:4c:da:8e:ba:a0:34:76:
                    3b:ce:56:9c:d9:6e:19:ac:e9:3a:50:66:90:56:90:
                    bc:ff:a9:f2:1e:ac:b2:9f:01:7c:96:50:6f:bf:84:
                    df:22:9c:f6:b1:21:94:8a:79:3c:6c:dc:94:c2:e7:
                    a7:f7
                Exponent: 65537 (0x10001)
        X509v3 extensions:
            X509v3 Subject Key Identifier: 
                EB:0C:96:1D:60:5D:3A:39:00:EA:D8:C3:73:B0:4E:C9:D6:B9:5D:5B
            X509v3 Authority Key Identifier: 
                keyid:EB:0C:96:1D:60:5D:3A:39:00:EA:D8:C3:73:B0:4E:C9:D6:B9:5D:5B

            X509v3 Basic Constraints: 
                CA:TRUE
    Signature Algorithm: sha256WithRSAEncryption
         08:9b:4d:5a:f0:f0:3d:ef:2e:d2:20:fc:9a:91:41:ba:f6:12:
         5b:49:7e:2c:84:4d:f7:cf:2b:54:9c:d3:31:d5:54:da:b5:80:
         0f:04:e5:ca:79:81:19:d4:89:c6:55:fa:b0:0d:9d:3a:f7:34:
         39:00:3b:db:18:66:45:25:9a:1c:11:02:c0:e3:46:b9:72:37:
         a8:49:dc:0a:7f:fd:1b:fb:78:6c:e3:ae:2f:ac:99:dc:bd:3e:
         14:12:f2:c3:f9:75:97:7d:d3:74:61:2b:fa:07:78:e5:99:ed:
         58:31:87:ee:07:d0:d1:31:b3:b6:e0:90:1b:93:ac:e2:f2:71:
         ce:c8:81:56:be:9c:2e:22:a7:8e:6c:29:dc:e8:69:4e:26:af:
         41:4d:57:b2:f7:62:a5:d5:33:0e:0d:3d:fb:bb:35:a9:bf:e0:
         0a:4e:75:85:d5:39:aa:02:29:d7:a7:20:24:97:2a:48:0f:33:
         57:24:8d:11:02:88:c7:19:bb:22:95:e7:7b:09:51:ef:79:71:
         40:8e:36:f6:40:4a:df:3c:a4:ca:f3:ac:60:ee:a8:8f:58:38:
         88:07:06:78:5b:6c:cd:38:e4:1f:aa:69:d4:a1:ba:dc:59:21:
         3b:e5:5c:50:ac:0b:5c:3f:c3:c9:5a:6a:fb:c3:46:5f:97:93:
         7f:f1:a7:0f
-----BEGIN CERTIFICATE-----
MIIDTjCCAjagAwIBAgIUPbocLgZZHbh98GfN4mg95HCsgYUwDQYJKoZIhvcNAQEL
BQAwNzELMAkGA1UEBhMCWFkxEDAOBgNVBAoMB0Rhc2sgQ0ExFjAUBgNVBAMMDW91
ci1jYS1zZXJ2ZXIwIBcNMjEwMTA2MDc0NjA4WhgPMzAyMTAxMDYwNzQ2MDhaMDcx
CzAJBgNVBAYTAlhZMRAwDgYDVQQKDAdEYXNrIENBMRYwFAYDVQQDDA1vdXItY2Et
c2VydmVyMIIBIjANBgkqhkiG9w0BAQEFAAOCAQ8AMIIBCgKCAQEAmPaUcOb3Zan9
hZyi4q4IO8STSmKVwxn5Zd3x3yjuC+ShqH1ol7VARZTHp3liD93/h+oSdu6R8T8O
Dk+9to8mQGMI+0dxiguucdmGEPD8AuE3u4doP8tnRG5gBGQ4JkCW3ACU4Crljcii
m9ES0PpDyinnQgwzOvnPCgFUOr8CsrRJRmw82bUsClwkC1oPZm4xS/UzSmdh5XEC
AssWHgCtvaWKYGutCSUUi9CrYOvVa3CvmrZmNkQIam3EknLOm4OjVAQ+CBONCgtO
ekzajrqgNHY7zlac2W4ZrOk6UGaQVpC8/6nyHqyynwF8llBvv4TfIpz2sSGUink8
bNyUwuen9wIDAQABo1AwTjAdBgNVHQ4EFgQU6wyWHWBdOjkA6tjDc7BOyda5XVsw
HwYDVR0jBBgwFoAU6wyWHWBdOjkA6tjDc7BOyda5XVswDAYDVR0TBAUwAwEB/zAN
BgkqhkiG9w0BAQsFAAOCAQEACJtNWvDwPe8u0iD8mpFBuvYSW0l+LIRN988rVJzT
MdVU2rWADwTlynmBGdSJxlX6sA2dOvc0OQA72xhmRSWaHBECwONGuXI3qEncCn/9
G/t4bOOuL6yZ3L0+FBLyw/l1l33TdGEr+gd45ZntWDGH7gfQ0TGztuCQG5Os4vJx
zsiBVr6cLiKnjmwp3OhpTiavQU1XsvdipdUzDg09+7s1qb/gCk51hdU5qgIp16cg
JJcqSA8zVySNEQKIxxm7IpXnewlR73lxQI429kBK3zykyvOsYO6oj1g4iAcGeFts
zTjkH6pp1KG63FkhO+VcUKwLXD/DyVpq+8NGX5eTf/GnDw==
-----END CERTIFICATE-----
