Certificate:
    Data:
        Version: 3 (0x2)
        Serial Number:
            cb:2d:80:99:5a:69:52:5b
        Signature Algorithm: sha256WithRSAEncryption
        Issuer: C=XY, O=Dask CA, CN=our-ca-server
        Validity
            Not Before: Aug 29 14:23:16 2018 GMT
            Not After : Oct 28 14:23:16 2037 GMT
        Subject: C=XY, O=Dask CA, CN=our-ca-server
        Subject Public Key Info:
            Public Key Algorithm: rsaEncryption
                Public-Key: (3072 bit)
                Modulus:
                    00:da:5c:62:f4:32:f6:29:c7:8f:24:45:71:3f:ea:
                    f0:db:b5:33:b4:42:18:3e:06:96:29:e6:d3:00:47:
                    d6:c7:e4:7d:f6:61:a4:bf:e2:48:3c:cd:24:1a:b4:
                    42:f2:9c:b3:08:55:53:04:2f:29:2d:48:da:8f:dc:
                    eb:a7:3e:1a:71:a4:d2:79:91:49:64:12:c3:79:65:
                    be:0a:4a:11:43:ee:51:6e:8d:dd:9f:28:e5:7d:19:
                    24:32:52:e0:61:78:e3:72:ef:8c:b7:de:9d:07:4c:
                    94:86:54:4a:7e:ed:f5:55:f3:14:d0:7a:e4:6b:ca:
                    de:d9:bd:88:34:fe:30:ea:e7:65:ae:29:d5:cc:1e:
                    bb:ff:c2:c5:1d:a5:1a:f8:49:7b:0d:b3:71:ce:c4:
                    9f:d5:cc:bf:e1:83:50:72:49:65:ed:0f:ff:69:e0:
                    89:5c:14:f1:a0:84:78:a8:ed:46:62:3a:48:08:50:
                    93:71:71:04:4c:8e:a0:c3:c3:9e:25:f3:19:54:cb:
                    56:a5:aa:92:14:72:9f:b5:c7:b5:1a:fa:8a:ae:4c:
                    5f:7b:35:19:71:9e:c6:a9:73:5c:97:38:4d:e6:2c:
                    cf:66:4e:d1:f2:83:3f:97:4d:ad:34:3f:77:f6:ed:
                    cd:67:5e:a5:a5:6d:2b:ee:9e:f0:2a:19:a8:3b:ec:
                    b3:dc:ee:72:b6:64:48:8f:a4:e8:7a:95:52:c0:f4:
                    f2:72:13:1c:5b:0a:fa:60:7f:18:29:84:d7:4d:34:
                    75:6c:3d:49:b0:74:6e:7b:18:1f:b5:bb:9d:69:f2:
                    1d:ff:f8:2a:c4:1e:3a:54:80:19:9b:87:fe:53:86:
                    de:66:92:8c:fa:72:e0:e9:53:f1:0c:69:9a:b0:98:
                    46:da:8a:ed:ca:fb:39:3d:37:c7:f8:3c:9b:be:29:
                    9a:5e:c0:40:8d:1d:0e:a8:c8:e9:f2:a0:c4:1a:66:
                    ae:a3:ce:ce:92:45:1a:e4:c9:e7:01:59:31:74:4b:
                    03:8c:a1:06:cc:12:5c:dd:cd:f7
                Exponent: 65537 (0x10001)
        X509v3 extensions:
            X509v3 Subject Key Identifier: 
                09:20:65:2B:61:F0:D0:F8:E7:C9:0C:29:6A:21:73:4C:D3:49:06:F2
            X509v3 Authority Key Identifier: 
                09:20:65:2B:61:F0:D0:F8:E7:C9:0C:29:6A:21:73:4C:D3:49:06:F2
            X509v3 Basic Constraints: critical
                CA:TRUE
            X509v3 Key Usage: critical
                Digital Signature, Certificate Sign, CRL Sign
    Signature Algorithm: sha256WithRSAEncryption
    Signature Value:
        09:73:2a:5b:da:89:15:a4:98:59:d7:90:3c:8b:71:c9:ed:6e:
        32:0a:01:9c:16:a9:6d:90:24:54:8d:58:d1:de:67:5b:d8:e1:
        16:a5:ef:dc:bf:66:25:73:af:b6:1d:70:fe:39:ab:05:b0:7e:
        4e:02:7c:04:a7:4b:17:66:1e:a7:f2:9b:22:5d:46:8e:c5:20:
        e7:83:4d:8e:f6:e0:17:dd:18:3e:bc:83:61:2e:4c:4a:9a:e9:
        85:67:5c:95:cd:e4:32:51:c0:62:ee:21:11:16:40:52:39:44:
        16:13:70:0d:aa:77:23:32:82:6b:18:95:51:24:7a:a1:4d:90:
        08:ac:17:8b:ff:34:17:c4:d5:86:bd:b3:41:d0:d9:b2:f7:67:
        4b:c5:73:b7:55:f2:da:b0:5c:66:7e:a2:de:29:fd:31:9f:0a:
        08:ca:70:2e:ab:e0:c6:a5:04:22:5a:7b:a5:0d:10:37:ef:c1:
        da:59:27:6e:2c:3c:fa:96:1c:97:97:e0:2d:78:ac:b0:79:fb:
        9c:b9:d0:af:4f:a9:be:fe:d1:f6:ce:f9:57:07:80:1e:3a:aa:
        c1:8b:22:30:76:f2:3f:e9:0e:77:40:33:c1:40:92:e0:4c:12:
        ce:15:44:15:16:a9:6d:9c:2a:3f:2c:92:7a:99:8f:a0:76:b1:
        6e:80:b6:7d:27:bb:75:67:eb:f6:b7:a4:06:bf:3e:ce:2d:29:
        1e:13:05:16:3b:93:bf:e7:42:33:a5:58:0e:5e:6a:0f:a0:d7:
        bc:87:8c:d2:bc:fd:96:e6:e0:3c:c5:77:cd:a9:c1:bf:79:42:
        4b:e5:f3:3a:57:11:ca:40:34:91:36:24:99:a2:16:a2:17:85:
        21:31:32:92:19:3f:6f:f4:f6:4d:28:d7:ea:af:ab:89:4f:84:
        7f:5b:3f:a0:12:f7:f7:69:58:93:f3:de:da:7c:cc:dd:55:fd:
        e1:60:b0:70:e6:a1:f9:fb:55:25:67:12:6b:d3:4b:fc:c8:c5:
        c5:37:fc:13:ee:32
-----BEGIN CERTIFICATE-----
MIIEVDCCArygAwIBAgIJAMstgJlaaVJbMA0GCSqGSIb3DQEBCwUAMDcxCzAJBgNV
BAYTAlhZMRAwDgYDVQQKDAdEYXNrIENBMRYwFAYDVQQDDA1vdXItY2Etc2VydmVy
MB4XDTE4MDgyOTE0MjMxNloXDTM3MTAyODE0MjMxNlowNzELMAkGA1UEBhMCWFkx
EDAOBgNVBAoMB0Rhc2sgQ0ExFjAUBgNVBAMMDW91ci1jYS1zZXJ2ZXIwggGiMA0G
CSqGSIb3DQEBAQUAA4IBjwAwggGKAoIBgQDaXGL0MvYpx48kRXE/6vDbtTO0Qhg+
BpYp5tMAR9bH5H32YaS/4kg8zSQatELynLMIVVMELyktSNqP3OunPhpxpNJ5kUlk
EsN5Zb4KShFD7lFujd2fKOV9GSQyUuBheONy74y33p0HTJSGVEp+7fVV8xTQeuRr
yt7ZvYg0/jDq52WuKdXMHrv/wsUdpRr4SXsNs3HOxJ/VzL/hg1BySWXtD/9p4Ilc
FPGghHio7UZiOkgIUJNxcQRMjqDDw54l8xlUy1alqpIUcp+1x7Ua+oquTF97NRlx
nsapc1yXOE3mLM9mTtHygz+XTa00P3f27c1nXqWlbSvunvAqGag77LPc7nK2ZEiP
pOh6lVLA9PJyExxbCvpgfxgphNdNNHVsPUmwdG57GB+1u51p8h3/+CrEHjpUgBmb
h/5Tht5mkoz6cuDpU/EMaZqwmEbaiu3K+zk9N8f4PJu+KZpewECNHQ6oyOnyoMQa
Zq6jzs6SRRrkyecBWTF0SwOMoQbMElzdzfcCAwEAAaNjMGEwHQYDVR0OBBYEFAkg
ZSth8ND458kMKWohc0zTSQbyMB8GA1UdIwQYMBaAFAkgZSth8ND458kMKWohc0zT
SQbyMA8GA1UdEwEB/wQFMAMBAf8wDgYDVR0PAQH/BAQDAgGGMA0GCSqGSIb3DQEB
CwUAA4IBgQAJcypb2okVpJhZ15A8i3HJ7W4yCgGcFqltkCRUjVjR3mdb2OEWpe/c
v2Ylc6+2HXD+OasFsH5OAnwEp0sXZh6n8psiXUaOxSDng02O9uAX3Rg+vINhLkxK
mumFZ1yVzeQyUcBi7iERFkBSOUQWE3ANqncjMoJrGJVRJHqhTZAIrBeL/zQXxNWG
vbNB0Nmy92dLxXO3VfLasFxmfqLeKf0xnwoIynAuq+DGpQQiWnulDRA378HaWSdu
LDz6lhyXl+AteKywefucudCvT6m+/tH2zvlXB4AeOqrBiyIwdvI/6Q53QDPBQJLg
TBLOFUQVFqltnCo/LJJ6mY+gdrFugLZ9J7t1Z+v2t6QGvz7OLSkeEwUWO5O/50Iz
pVgOXmoPoNe8h4zSvP2W5uA8xXfNqcG/eUJL5fM6VxHKQDSRNiSZohaiF4UhMTKS
GT9v9PZNKNfqr6uJT4R/Wz+gEvf3aViT897afMzdVf3hYLBw5qH5+1UlZxJr00v8
yMXFN/wT7jI=
-----END CERTIFICATE-----
